target datalayout = "e-m:e-p270:32:32-p271:32:32-p272:64:64-i64:64-i128:128-f80:128-n8:16:32:64-S128"
target triple = "x86_64-pc-linux-gnu"

@_ZTV12MyToolButton = external unnamed_addr constant { [57 x ptr], [10 x ptr] }, align 8
@_ZN27DelayedToolButtonPopUpStyleC1Ei = unnamed_addr alias void (ptr, i32), ptr @_ZN27DelayedToolButtonPopUpStyleC2Ei

; Function Attrs: mustprogress uwtable
define void @_ZN12MyToolButtonC2EiP7QWidget(ptr noundef nonnull align 8 dereferenceable(48) %0, i32 noundef %1, ptr noundef %2) unnamed_addr #2 align 2 personality ptr @__gxx_personality_v0 {
  %4 = alloca ptr, align 8
  %5 = alloca i32, align 4
  %6 = alloca ptr, align 8
  %7 = alloca ptr, align 8
  %8 = alloca i32, align 4
  %9 = alloca ptr, align 8
  store ptr %0, ptr %4, align 8
  store i32 %1, ptr %5, align 4
  store ptr %2, ptr %6, align 8
  %10 = load ptr, ptr %4, align 8
  %11 = load ptr, ptr %6, align 8
  call void @_ZN11QToolButtonC2EP7QWidget(ptr noundef nonnull align 8 dereferenceable(48) %10, ptr noundef %11)
  store ptr getelementptr inbounds ({ [57 x ptr], [10 x ptr] }, ptr @_ZTV12MyToolButton, i32 0, i32 0, i32 2), ptr %10, align 8
  %12 = getelementptr inbounds i8, ptr %10, i64 16
  store ptr getelementptr inbounds ({ [57 x ptr], [10 x ptr] }, ptr @_ZTV12MyToolButton, i32 0, i32 1, i32 2), ptr %12, align 8
  %13 = load i32, ptr %5, align 4
  %14 = icmp ne i32 %13, 0
  br i1 %14, label %15, label %31

15:                                               ; preds = %3
  invoke void @_ZN11QToolButton12setPopupModeENS_19ToolButtonPopupModeE(ptr noundef nonnull align 8 dereferenceable(48) %10, i32 noundef 0)
          to label %16 unwind label %23

16:                                               ; preds = %15
  %17 = invoke noalias noundef nonnull ptr @_Znwm(i64 noundef 24) #11
          to label %18 unwind label %23

18:                                               ; preds = %16
  %19 = load i32, ptr %5, align 4
  invoke void @_ZN27DelayedToolButtonPopUpStyleC1Ei(ptr noundef nonnull align 8 dereferenceable(20) %17, i32 noundef %19)
          to label %20 unwind label %27

20:                                               ; preds = %18
  store ptr %17, ptr %9, align 8
  %21 = load ptr, ptr %9, align 8
  invoke void @_ZN7QWidget8setStyleEP6QStyle(ptr noundef nonnull align 8 dereferenceable(48) %10, ptr noundef %21)
          to label %22 unwind label %23

22:                                               ; preds = %20
  br label %33

23:                                               ; preds = %31, %20, %16, %15
  %24 = landingpad { ptr, i32 }
          cleanup
  %25 = extractvalue { ptr, i32 } %24, 0
  store ptr %25, ptr %7, align 8
  %26 = extractvalue { ptr, i32 } %24, 1
  store i32 %26, ptr %8, align 4
  br label %34

27:                                               ; preds = %18
  %28 = landingpad { ptr, i32 }
          cleanup
  %29 = extractvalue { ptr, i32 } %28, 0
  store ptr %29, ptr %7, align 8
  %30 = extractvalue { ptr, i32 } %28, 1
  store i32 %30, ptr %8, align 4
  call void @_ZdlPv(ptr noundef %17) #10
  br label %34

31:                                               ; preds = %3
  invoke void @_ZN11QToolButton12setPopupModeENS_19ToolButtonPopupModeE(ptr noundef nonnull align 8 dereferenceable(48) %10, i32 noundef 2)
          to label %32 unwind label %23

32:                                               ; preds = %31
  br label %33

33:                                               ; preds = %32, %22
  ret void

34:                                               ; preds = %27, %23
  call void @_ZN11QToolButtonD2Ev(ptr noundef nonnull align 8 dereferenceable(48) %10) #9
  br label %35

35:                                               ; preds = %34
  %36 = load ptr, ptr %7, align 8
  %37 = load i32, ptr %8, align 4
  %38 = insertvalue { ptr, i32 } poison, ptr %36, 0
  %39 = insertvalue { ptr, i32 } %38, i32 %37, 1
  resume { ptr, i32 } %39
}