; Function Attrs: mustprogress uwtable
define void @_ZN12MyToolButtonC2EiP7QWidget(ptr noundef nonnull align 8 dereferenceable(48) %0, i32 noundef %1, ptr noundef %2) unnamed_addr #2 align 2 personality ptr @__gxx_personality_v0 {
  tail call void @_ZN11QToolButtonC2EP7QWidget(ptr noundef nonnull align 8 dereferenceable(48) %0, ptr noundef %2)
  store ptr getelementptr inbounds ({ [57 x ptr], [10 x ptr] }, ptr @_ZTV12MyToolButton, i64 0, i32 0, i64 2), ptr %0, align 8
  %4 = getelementptr inbounds i8, ptr %0, i64 16
  store ptr getelementptr inbounds ({ [57 x ptr], [10 x ptr] }, ptr @_ZTV12MyToolButton, i64 0, i32 1, i64 2), ptr %4, align 8
  %.not = icmp eq i32 %1, 0
  br i1 %.not, label %14, label %5

5:                                                ; preds = %3
  invoke void @_ZN11QToolButton12setPopupModeENS_19ToolButtonPopupModeE(ptr noundef nonnull align 8 dereferenceable(48) %0, i32 noundef 0)
          to label %6 unwind label %10

6:                                                ; preds = %5
  %7 = invoke noalias noundef nonnull dereferenceable(24) ptr @_Znwm(i64 noundef 24) #13
          to label %8 unwind label %10

8:                                                ; preds = %6
  invoke void @_ZN27DelayedToolButtonPopUpStyleC1Ei(ptr noundef nonnull align 8 dereferenceable(20) %7, i32 noundef %1)
          to label %9 unwind label %12

9:                                                ; preds = %8
  invoke void @_ZN7QWidget8setStyleEP6QStyle(ptr noundef nonnull align 8 dereferenceable(48) %0, ptr noundef nonnull %7)
          to label %15 unwind label %10

10:                                               ; preds = %14, %9, %6, %5
  %11 = landingpad { ptr, i32 }
          cleanup
  br label %16

12:                                               ; preds = %8
  %13 = landingpad { ptr, i32 }
          cleanup
  tail call void @_ZdlPv(ptr noundef nonnull %7) #12
  br label %16

14:                                               ; preds = %3
  invoke void @_ZN11QToolButton12setPopupModeENS_19ToolButtonPopupModeE(ptr noundef nonnull align 8 dereferenceable(48) %0, i32 noundef 2)
          to label %15 unwind label %10

15:                                               ; preds = %14, %9
  ret void

16:                                               ; preds = %12, %10
  %.pn = phi { ptr, i32 } [ %11, %10 ], [ %13, %12 ]
  tail call void @_ZN11QToolButtonD2Ev(ptr noundef nonnull align 8 dereferenceable(48) %0) #11
  resume { ptr, i32 } %.pn
}